target datalayout = "e-m:e-p270:32:32-p271:32:32-p272:64:64-i64:64-i128:128-f80:128-n8:16:32:64-S128"
target triple = "x86_64-pc-linux-gnu"

%struct._value_string_ext = type { ptr, i32, i32, ptr, ptr }

@ppp_vals_ext = hidden global %struct._value_string_ext { ptr @_try_val_to_str_ext_init, i32 0, i32 133, ptr @ppp_vals, ptr @.str.6 }, align 8
@hf_lcp_opt_data = internal global i32 0, align 4
@hf_lcp_opt_auth_protocol = internal global i32 0, align 4
@hf_lcp_opt_algorithm = internal global i32 0, align 4
@ett_lcp_authprot_opt = internal global i32 0, align 4
@proto_lcp_option_authprot = internal global i32 0, align 4
@.str.692 = private unnamed_addr constant [8 x i8] c"Unknown\00", align 1
@.str.1324 = private unnamed_addr constant [14 x i8] c": %s (0x%02x)\00", align 1

; Function Attrs: null_pointer_is_valid sspstrong uwtable
define internal i32 @dissect_lcp_authprot_opt(ptr noundef %0, ptr noundef %1, ptr noundef %2, ptr noundef %3) #1 {
  %5 = alloca i32, align 4
  %6 = alloca ptr, align 8
  %7 = alloca ptr, align 8
  %8 = alloca ptr, align 8
  %9 = alloca ptr, align 8
  %10 = alloca ptr, align 8
  %11 = alloca ptr, align 8
  %12 = alloca i32, align 4
  %13 = alloca i32, align 4
  %14 = alloca i32, align 4
  %15 = alloca i32, align 4
  store ptr %0, ptr %6, align 8
  store ptr %1, ptr %7, align 8
  store ptr %2, ptr %8, align 8
  store ptr %3, ptr %9, align 8
  call void @llvm.lifetime.start.p0(i64 8, ptr %10) #6
  call void @llvm.lifetime.start.p0(i64 8, ptr %11) #6
  call void @llvm.lifetime.start.p0(i64 4, ptr %12) #6
  call void @llvm.lifetime.start.p0(i64 4, ptr %13) #6
  store i32 0, ptr %13, align 4
  call void @llvm.lifetime.start.p0(i64 4, ptr %14) #6
  %16 = load ptr, ptr %6, align 8
  %17 = call i32 @tvb_reported_length(ptr noundef %16)
  store i32 %17, ptr %14, align 4
  %18 = load ptr, ptr %6, align 8
  %19 = load ptr, ptr %7, align 8
  %20 = load ptr, ptr %8, align 8
  %21 = load i32, ptr @proto_lcp_option_authprot, align 4
  %22 = load i32, ptr @ett_lcp_authprot_opt, align 4
  %23 = call zeroext i1 @dissect_lcp_var_opt(ptr noundef %18, ptr noundef %19, ptr noundef %20, i32 noundef %21, i32 noundef %22, i32 noundef 4, ptr noundef %10, ptr noundef %11)
  br i1 %23, label %27, label %24

24:                                               ; preds = %4
  %25 = load ptr, ptr %6, align 8
  %26 = call i32 @tvb_captured_length(ptr noundef %25)
  store i32 %26, ptr %5, align 4
  store i32 1, ptr %15, align 4
  br label %76

27:                                               ; preds = %4
  %28 = load ptr, ptr %10, align 8
  %29 = load i32, ptr @hf_lcp_opt_auth_protocol, align 4
  %30 = load ptr, ptr %6, align 8
  %31 = load i32, ptr %13, align 4
  %32 = add i32 %31, 2
  %33 = call ptr @proto_tree_add_item_ret_uint(ptr noundef %28, i32 noundef %29, ptr noundef %30, i32 noundef %32, i32 noundef 2, i32 noundef 0, ptr noundef %12)
  %34 = load ptr, ptr %11, align 8
  %35 = load i32, ptr %12, align 4
  %36 = call ptr @val_to_str_ext_const(i32 noundef %35, ptr noundef @ppp_vals_ext, ptr noundef @.str.692)
  %37 = load i32, ptr %12, align 4
  call void (ptr, ptr, ...) @proto_item_append_text(ptr noundef %34, ptr noundef @.str.1324, ptr noundef %36, i32 noundef %37)
  %38 = load i32, ptr %14, align 4
  %39 = icmp sgt i32 %38, 4
  br i1 %39, label %40, label %73

40:                                               ; preds = %27
  %41 = load i32, ptr %13, align 4
  %42 = add i32 %41, 4
  store i32 %42, ptr %13, align 4
  %43 = load i32, ptr %14, align 4
  %44 = sub i32 %43, 4
  store i32 %44, ptr %14, align 4
  %45 = load i32, ptr %12, align 4
  %46 = icmp eq i32 %45, 49699
  br i1 %46, label %47, label %65

47:                                               ; preds = %40
  %48 = load ptr, ptr %10, align 8
  %49 = load i32, ptr @hf_lcp_opt_algorithm, align 4
  %50 = load ptr, ptr %6, align 8
  %51 = load i32, ptr %13, align 4
  %52 = call ptr @proto_tree_add_item(ptr noundef %48, i32 noundef %49, ptr noundef %50, i32 noundef %51, i32 noundef 1, i32 noundef 0)
  %53 = load i32, ptr %14, align 4
  %54 = icmp sgt i32 %53, 1
  br i1 %54, label %55, label %64

55:                                               ; preds = %47
  %56 = load ptr, ptr %10, align 8
  %57 = load i32, ptr @hf_lcp_opt_data, align 4
  %58 = load ptr, ptr %6, align 8
  %59 = load i32, ptr %13, align 4
  %60 = add i32 %59, 1
  %61 = load i32, ptr %14, align 4
  %62 = sub i32 %61, 1
  %63 = call ptr @proto_tree_add_item(ptr noundef %56, i32 noundef %57, ptr noundef %58, i32 noundef %60, i32 noundef %62, i32 noundef 0)
  br label %64

64:                                               ; preds = %55, %47
  br label %72

65:                                               ; preds = %40
  %66 = load ptr, ptr %10, align 8
  %67 = load i32, ptr @hf_lcp_opt_data, align 4
  %68 = load ptr, ptr %6, align 8
  %69 = load i32, ptr %13, align 4
  %70 = load i32, ptr %14, align 4
  %71 = call ptr @proto_tree_add_item(ptr noundef %66, i32 noundef %67, ptr noundef %68, i32 noundef %69, i32 noundef %70, i32 noundef 0)
  br label %72

72:                                               ; preds = %65, %64
  br label %73

73:                                               ; preds = %72, %27
  %74 = load ptr, ptr %6, align 8
  %75 = call i32 @tvb_captured_length(ptr noundef %74)
  store i32 %75, ptr %5, align 4
  store i32 1, ptr %15, align 4
  br label %76

76:                                               ; preds = %73, %24
  call void @llvm.lifetime.end.p0(i64 4, ptr %14) #6
  call void @llvm.lifetime.end.p0(i64 4, ptr %13) #6
  call void @llvm.lifetime.end.p0(i64 4, ptr %12) #6
  call void @llvm.lifetime.end.p0(i64 8, ptr %11) #6
  call void @llvm.lifetime.end.p0(i64 8, ptr %10) #6
  %77 = load i32, ptr %5, align 4
  ret i32 %77
}